(dp0
S'REWAF'
p1
(dp2
S'acc'
p3
(lp4
F0.777
aF0.843
aF0.845
asS'stdTime'
p5
(lp6
F0.223
aF0.229
aF0.16
asS'stdReg'
p7
(lp8
F0.0
aF0.024
aF0.0
asS'stdAcc'
p9
(lp10
F0.0
aF0.0
aF0.0
asS'stdQue'
p11
(lp12
F0.0
aF0.001324
aF0.0
asS'time'
p13
(lp14
F1.229
aF1.864
aF1.824
asS'que'
p15
(lp16
F3.8e-05
aF0.499413
aF1.000038
asS'reg'
p17
(lp18
F16.256
aF0.571
aF0.283
assS'RAGF'
p19
(dp20
g3
(lp21
F0.845
aF0.845
aF0.845
asg5
(lp22
F0.281
aF0.343
aF0.262
asg7
(lp23
F0.0
aF0.0
aF0.0
asg9
(lp24
F0.0
aF0.0
aF0.0
asg11
(lp25
F0.003539
aF0.0155
aF0.01727
asg13
(lp26
F3.482
aF3.31
aF3.35
asg15
(lp27
F0.797597
aF0.339253
aF0.313563
asg17
(lp28
F0.283
aF0.283
aF0.283
assS'AGF'
p29
(dp30
g3
(lp31
F0.845
aF0.845
aF0.845
asg5
(lp32
F0.308
aF0.198
aF0.296
asg7
(lp33
F0.0
aF0.001
aF0.002
asg9
(lp34
F0.0
aF0.0
aF0.0
asg11
(lp35
F0.00014
aF0.000112
aF0.000148
asg13
(lp36
F3.19
aF2.93
aF2.888
asg15
(lp37
F0.867857
aF0.855227
aF0.844363
asg17
(lp38
F0.283
aF0.282
aF0.281
assS'RAEWAF'
p39
(dp40
g3
(lp41
F0.845
aF0.845
aF0.845
asg5
(lp42
F0.361
aF0.324
aF0.14
asg7
(lp43
F0.0
aF0.0
aF0.0
asg9
(lp44
F0.0
aF0.0
aF0.0
asg11
(lp45
F0.005496
aF0.007031
aF0.007778
asg13
(lp46
F4.99
aF5.166
aF4.975
asg15
(lp47
F0.426565
aF0.404852
aF0.391777
asg17
(lp48
F0.283
aF0.283
aF0.283
assS'GF'
p49
(dp50
g3
(lp51
F0.845
aF0.845
aF0.845
asg5
(lp52
F0.209
aF0.209
aF0.209
asg7
(lp53
F0.0
aF0.0
aF0.0
asg9
(lp54
F0.0
aF0.0
aF0.0
asg11
(lp55
F0.0
aF0.0
aF0.0
asg13
(lp56
F2.651
aF2.651
aF2.651
asg15
(lp57
F1.0
aF1.0
aF1.0
asg17
(lp58
F0.283
aF0.283
aF0.283
assS'RGF'
p59
(dp60
g3
(lp61
F0.777
aF0.843
aF0.845
asg5
(lp62
F0.216
aF0.149
aF0.285
asg7
(lp63
F0.0
aF0.051
aF0.0
asg9
(lp64
F0.0
aF0.001
aF0.0
asg11
(lp65
F0.0
aF0.002626
aF0.0
asg13
(lp66
F2.506
aF2.253
aF2.455
asg15
(lp67
F0.0
aF0.498722
aF1.0
asg17
(lp68
F16.257
aF0.578
aF0.283
assS'AEWAF'
p69
(dp70
g3
(lp71
F0.845
aF0.845
aF0.845
asg5
(lp72
F0.138
aF0.266
aF0.07
asg7
(lp73
F0.001
aF0.0
aF0.001
asg9
(lp74
F0.0
aF0.0
aF0.0
asg11
(lp75
F0.0
aF0.0
aF0.0
asg13
(lp76
F2.367
aF2.24
aF2.063
asg15
(lp77
F0.86844
aF0.856616
aF0.846558
asg17
(lp78
F0.283
aF0.283
aF0.283
assS'EWAF'
p79
(dp80
g3
(lp81
F0.845
aF0.845
aF0.845
asg5
(lp82
F0.175
aF0.175
aF0.175
asg7
(lp83
F0.0
aF0.0
aF0.0
asg9
(lp84
F0.0
aF0.0
aF0.0
asg11
(lp85
F0.0
aF0.0
aF0.0
asg13
(lp86
F2.119
aF2.119
aF2.119
asg15
(lp87
F1.000038
aF1.000038
aF1.000038
asg17
(lp88
F0.283
aF0.283
aF0.283
ass.