(dp0
S'REWAF'
p1
(dp2
S'acc'
p3
(lp4
F0.832
aF0.833
aF0.833
aF0.833
aF0.833
asS'stdTime'
p5
(lp6
F0.126
aF0.097
aF0.036
aF0.157
aF0.111
asS'stdReg'
p7
(lp8
F0.033
aF0.022
aF0.03
aF0.045
aF0.043
asS'stdAcc'
p9
(lp10
F0.002
aF0.004
aF0.002
aF0.003
aF0.003
asS'stdQue'
p11
(lp12
F0.002458
aF0.001095
aF0.001617
aF0.001406
aF0.0013
asS'time'
p13
(lp14
F1.977
aF1.839
aF1.743
aF2.112
aF2.192
asS'que'
p15
(lp16
F0.436907
aF0.430949
aF0.425037
aF0.425383
aF0.424961
asS'reg'
p17
(lp18
F0.42
aF0.425
aF0.438
aF0.426
aF0.434
assS'RAGF'
p19
(dp20
g3
(lp21
F0.834
aF0.834
aF0.834
aF0.834
aF0.834
asg5
(lp22
F0.504
aF0.276
aF0.165
aF0.281
aF0.215
asg7
(lp23
F0.0
aF0.0
aF0.0
aF0.0
aF0.0
asg9
(lp24
F0.003
aF0.003
aF0.003
aF0.003
aF0.003
asg11
(lp25
F0.005183
aF0.001287
aF0.001135
aF0.001138
aF0.000984
asg13
(lp26
F4.922
aF4.379
aF3.988
aF4.6
aF4.721
asg15
(lp27
F0.663373
aF0.418903
aF0.414342
aF0.411678
aF0.409712
asg17
(lp28
F0.219
aF0.219
aF0.219
aF0.219
aF0.22
assS'AGF'
p29
(dp30
g3
(lp31
F0.836
aF0.838
aF0.84
aF0.842
aF0.842
asg5
(lp32
F1.02
aF0.18
aF0.064
aF0.39
aF0.143
asg7
(lp33
F0.002
aF0.005
aF0.011
aF0.013
aF0.016
asg9
(lp34
F0.003
aF0.002
aF0.001
aF0.001
aF0.001
asg11
(lp35
F0.000507
aF0.001167
aF0.001169
aF0.001971
aF0.002281
asg13
(lp36
F4.536
aF3.768
aF3.502
aF4.364
aF4.206
asg15
(lp37
F0.438374
aF0.401321
aF0.363515
aF0.32855
aF0.296265
asg17
(lp38
F0.214
aF0.202
aF0.188
aF0.174
aF0.167
assS'RAEWAF'
p39
(dp40
g3
(lp41
F0.834
aF0.834
aF0.834
aF0.834
aF0.834
asg5
(lp42
F0.425
aF0.566
aF0.155
aF0.556
aF0.467
asg7
(lp43
F0.0
aF0.0
aF0.0
aF0.0
aF0.0
asg9
(lp44
F0.003
aF0.003
aF0.003
aF0.003
aF0.003
asg11
(lp45
F0.000838
aF0.000743
aF0.000731
aF0.000679
aF0.000822
asg13
(lp46
F7.478
aF7.243
aF6.646
aF7.523
aF8.061
asg15
(lp47
F0.435034
aF0.430757
aF0.428162
aF0.426335
aF0.424907
asg17
(lp48
F0.219
aF0.219
aF0.219
aF0.219
aF0.219
assS'GF'
p49
(dp50
g3
(lp51
F0.834
aF0.834
aF0.834
aF0.834
aF0.834
asg5
(lp52
F0.186
aF0.186
aF0.186
aF0.186
aF0.186
asg7
(lp53
F0.0
aF0.0
aF0.0
aF0.0
aF0.0
asg9
(lp54
F0.003
aF0.003
aF0.003
aF0.003
aF0.003
asg11
(lp55
F0.0
aF0.0
aF0.0
aF0.0
aF0.0
asg13
(lp56
F3.236
aF3.236
aF3.236
aF3.236
aF3.236
asg15
(lp57
F1.0
aF1.0
aF1.0
aF1.0
aF1.0
asg17
(lp58
F0.219
aF0.219
aF0.219
aF0.219
aF0.219
assS'RGF'
p59
(dp60
g3
(lp61
F0.834
aF0.833
aF0.832
aF0.833
aF0.833
asg5
(lp62
F0.304
aF0.245
aF0.08
aF0.276
aF0.183
asg7
(lp63
F0.004
aF0.036
aF0.014
aF0.039
aF0.011
asg9
(lp64
F0.003
aF0.004
aF0.003
aF0.002
aF0.003
asg11
(lp65
F0.004358
aF0.001985
aF0.001792
aF0.002262
aF0.002701
asg13
(lp66
F3.485
aF3.038
aF2.84
aF3.26
aF3.369
asg15
(lp67
F0.664233
aF0.417145
aF0.413897
aF0.408177
aF0.409666
asg17
(lp68
F0.298
aF0.447
aF0.44
aF0.436
aF0.423
assS'AEWAF'
p69
(dp70
g3
(lp71
F0.835
aF0.836
aF0.838
aF0.839
aF0.84
asg5
(lp72
F0.213
aF0.181
aF0.022
aF0.183
aF0.119
asg7
(lp73
F0.001
aF0.002
aF0.006
aF0.01
aF0.014
asg9
(lp74
F0.003
aF0.002
aF0.002
aF0.001
aF0.001
asg11
(lp75
F0.0
aF0.0
aF0.0
aF0.0
aF0.0
asg13
(lp76
F2.621
aF2.424
aF2.225
aF2.429
aF2.65
asg15
(lp77
F0.446466
aF0.419248
aF0.386118
aF0.358862
aF0.32792
asg17
(lp78
F0.217
aF0.213
aF0.205
aF0.197
aF0.189
assS'EWAF'
p79
(dp80
g3
(lp81
F0.834
aF0.834
aF0.834
aF0.834
aF0.834
asg5
(lp82
F0.227
aF0.227
aF0.227
aF0.227
aF0.227
asg7
(lp83
F0.0
aF0.0
aF0.0
aF0.0
aF0.0
asg9
(lp84
F0.003
aF0.003
aF0.003
aF0.003
aF0.003
asg11
(lp85
F0.0
aF0.0
aF0.0
aF0.0
aF0.0
asg13
(lp86
F2.458
aF2.458
aF2.458
aF2.458
aF2.458
asg15
(lp87
F1.000038
aF1.000038
aF1.000038
aF1.000038
aF1.000038
asg17
(lp88
F0.219
aF0.219
aF0.219
aF0.219
aF0.219
ass.